target datalayout = "e-m:e-p270:32:32-p271:32:32-p272:64:64-i64:64-i128:128-f80:128-n8:16:32:64-S128"
target triple = "x86_64-pc-linux-gnu"

%struct._packet_info = type { ptr, ptr, i32, i32, %struct.nstime_t, %struct.nstime_t, %struct.nstime_t, i8, ptr, ptr, ptr, ptr, %struct._address, %struct._address, %struct._address, %struct._address, %struct._address, %struct._address, i32, ptr, i8, [3 x i8], %struct.anon, i32, i32, i32, i32, ptr, i8, ptr, ptr, i16, i16, i32, i32, i16, i32, i32, ptr, ptr, ptr, i8, i8, i16, i16, i16, i32, i16, i16, ptr, ptr, ptr, ptr, ptr, i32, i32 }
%struct.nstime_t = type { i64, i32 }
%struct._address = type { i32, i32, ptr, ptr }
%struct.anon = type { i8, [3 x i8] }

@hf_kafka_topic_name = internal global i32 0, align 4
@.str.558 = private unnamed_addr constant [6 x i8] c"Topic\00", align 1
@ett_kafka_topic = internal global i32 0, align 4
@ett_kafka_partitions = internal global i32 0, align 4
@.str.671 = private unnamed_addr constant [11 x i8] c"Partitions\00", align 1
@.str.687 = private unnamed_addr constant [12 x i8] c" (Topic=%s)\00", align 1

; Function Attrs: null_pointer_is_valid sspstrong uwtable
define internal i32 @dissect_kafka_txn_offset_commit_response_topic(ptr noundef %0, ptr noundef %1, ptr noundef %2, i32 noundef %3, i16 noundef signext %4) #0 {
  %6 = alloca ptr, align 8
  %7 = alloca ptr, align 8
  %8 = alloca ptr, align 8
  %9 = alloca i32, align 4
  %10 = alloca i16, align 2
  %11 = alloca i32, align 4
  %12 = alloca i32, align 4
  %13 = alloca ptr, align 8
  %14 = alloca ptr, align 8
  %15 = alloca ptr, align 8
  %16 = alloca ptr, align 8
  store ptr %0, ptr %6, align 8
  store ptr %1, ptr %7, align 8
  store ptr %2, ptr %8, align 8
  store i32 %3, ptr %9, align 4
  store i16 %4, ptr %10, align 2
  call void @llvm.lifetime.start.p0(i64 4, ptr %11) #12
  call void @llvm.lifetime.start.p0(i64 4, ptr %12) #12
  call void @llvm.lifetime.start.p0(i64 8, ptr %13) #12
  call void @llvm.lifetime.start.p0(i64 8, ptr %14) #12
  call void @llvm.lifetime.start.p0(i64 8, ptr %15) #12
  call void @llvm.lifetime.start.p0(i64 8, ptr %16) #12
  %17 = load ptr, ptr %8, align 8
  %18 = load ptr, ptr %6, align 8
  %19 = load i32, ptr %9, align 4
  %20 = load i32, ptr @ett_kafka_topic, align 4
  %21 = call ptr @proto_tree_add_subtree(ptr noundef %17, ptr noundef %18, i32 noundef %19, i32 noundef -1, i32 noundef %20, ptr noundef %13, ptr noundef @.str.558)
  store ptr %21, ptr %15, align 8
  %22 = load ptr, ptr %15, align 8
  %23 = load i32, ptr @hf_kafka_topic_name, align 4
  %24 = load ptr, ptr %6, align 8
  %25 = load ptr, ptr %7, align 8
  %26 = load i32, ptr %9, align 4
  %27 = load i16, ptr %10, align 2
  %28 = sext i16 %27 to i32
  %29 = icmp sge i32 %28, 3
  %30 = zext i1 %29 to i32
  %31 = call i32 @dissect_kafka_string(ptr noundef %22, i32 noundef %23, ptr noundef %24, ptr noundef %25, i32 noundef %26, i32 noundef %30, ptr noundef %11, ptr noundef %12)
  store i32 %31, ptr %9, align 4
  %32 = load ptr, ptr %15, align 8
  %33 = load ptr, ptr %6, align 8
  %34 = load i32, ptr %9, align 4
  %35 = load i32, ptr @ett_kafka_partitions, align 4
  %36 = call ptr @proto_tree_add_subtree(ptr noundef %32, ptr noundef %33, i32 noundef %34, i32 noundef -1, i32 noundef %35, ptr noundef %14, ptr noundef @.str.671)
  store ptr %36, ptr %16, align 8
  %37 = load ptr, ptr %16, align 8
  %38 = load ptr, ptr %6, align 8
  %39 = load ptr, ptr %7, align 8
  %40 = load i32, ptr %9, align 4
  %41 = load i16, ptr %10, align 2
  %42 = sext i16 %41 to i32
  %43 = icmp sge i32 %42, 3
  %44 = zext i1 %43 to i32
  %45 = load i16, ptr %10, align 2
  %46 = call i32 @dissect_kafka_array(ptr noundef %37, ptr noundef %38, ptr noundef %39, i32 noundef %40, i32 noundef %44, i16 noundef signext %45, ptr noundef @dissect_kafka_txn_offset_commit_response_partition, ptr noundef null)
  store i32 %46, ptr %9, align 4
  %47 = load ptr, ptr %14, align 8
  %48 = load ptr, ptr %6, align 8
  %49 = load i32, ptr %9, align 4
  call void @proto_item_set_end(ptr noundef %47, ptr noundef %48, i32 noundef %49)
  %50 = load i16, ptr %10, align 2
  %51 = sext i16 %50 to i32
  %52 = icmp sge i32 %51, 3
  br i1 %52, label %53, label %59

53:                                               ; preds = %5
  %54 = load ptr, ptr %6, align 8
  %55 = load ptr, ptr %7, align 8
  %56 = load ptr, ptr %15, align 8
  %57 = load i32, ptr %9, align 4
  %58 = call i32 @dissect_kafka_tagged_fields(ptr noundef %54, ptr noundef %55, ptr noundef %56, i32 noundef %57, i16 noundef signext 0)
  store i32 %58, ptr %9, align 4
  br label %59

59:                                               ; preds = %53, %5
  %60 = load ptr, ptr %13, align 8
  %61 = load ptr, ptr %6, align 8
  %62 = load i32, ptr %9, align 4
  call void @proto_item_set_end(ptr noundef %60, ptr noundef %61, i32 noundef %62)
  %63 = load ptr, ptr %13, align 8
  %64 = load ptr, ptr %7, align 8
  %65 = getelementptr inbounds nuw %struct._packet_info, ptr %64, i32 0, i32 51
  %66 = load ptr, ptr %65, align 8
  %67 = load ptr, ptr %6, align 8
  %68 = load i32, ptr %11, align 4
  %69 = load i32, ptr %12, align 4
  %70 = call ptr @tvb_get_string_enc(ptr noundef %66, ptr noundef %67, i32 noundef %68, i32 noundef %69, i32 noundef 2)
  call void (ptr, ptr, ...) @proto_item_append_text(ptr noundef %63, ptr noundef @.str.687, ptr noundef %70)
  %71 = load i32, ptr %9, align 4
  call void @llvm.lifetime.end.p0(i64 8, ptr %16) #12
  call void @llvm.lifetime.end.p0(i64 8, ptr %15) #12
  call void @llvm.lifetime.end.p0(i64 8, ptr %14) #12
  call void @llvm.lifetime.end.p0(i64 8, ptr %13) #12
  call void @llvm.lifetime.end.p0(i64 4, ptr %12) #12
  call void @llvm.lifetime.end.p0(i64 4, ptr %11) #12
  ret i32 %71
}