; Function Attrs: null_pointer_is_valid sspstrong uwtable
define internal noundef i32 @dissect_kafka_txn_offset_commit_response_topic(ptr noundef %0, ptr noundef %1, ptr noundef %2, i32 noundef %3, i16 noundef signext %4) #0 {
  %6 = alloca i32, align 4
  %7 = alloca i32, align 4
  %8 = alloca ptr, align 8
  %9 = alloca ptr, align 8
  call void @llvm.lifetime.start.p0(i64 4, ptr nonnull %6) #9
  call void @llvm.lifetime.start.p0(i64 4, ptr nonnull %7) #9
  call void @llvm.lifetime.start.p0(i64 8, ptr nonnull %8) #9
  call void @llvm.lifetime.start.p0(i64 8, ptr nonnull %9) #9
  %10 = load i32, ptr @ett_kafka_topic, align 4
  %11 = call ptr @proto_tree_add_subtree(ptr noundef %2, ptr noundef %0, i32 noundef %3, i32 noundef -1, i32 noundef %10, ptr noundef nonnull %8, ptr noundef nonnull @.str.558)
  %12 = load i32, ptr @hf_kafka_topic_name, align 4
  %13 = icmp sgt i16 %4, 2
  %14 = zext i1 %13 to i32
  %15 = call fastcc i32 @dissect_kafka_string(ptr noundef %11, i32 noundef %12, ptr noundef %0, ptr noundef %1, i32 noundef %3, i32 noundef %14, ptr noundef nonnull %6, ptr noundef nonnull %7)
  %16 = load i32, ptr @ett_kafka_partitions, align 4
  %17 = call ptr @proto_tree_add_subtree(ptr noundef %11, ptr noundef %0, i32 noundef %15, i32 noundef -1, i32 noundef %16, ptr noundef nonnull %9, ptr noundef nonnull @.str.671)
  %18 = call fastcc i32 @dissect_kafka_array(ptr noundef %17, ptr noundef %0, ptr noundef %1, i32 noundef %15, i32 noundef %14, i16 noundef signext %4, ptr noundef nonnull @dissect_kafka_txn_offset_commit_response_partition, ptr noundef null)
  %19 = load ptr, ptr %9, align 8
  call void @proto_item_set_end(ptr noundef %19, ptr noundef %0, i32 noundef %18)
  br i1 %13, label %20, label %22

20:                                               ; preds = %5
  %21 = call fastcc i32 @dissect_kafka_tagged_fields(ptr noundef %0, ptr noundef %1, ptr noundef %11, i32 noundef %18)
  br label %22

22:                                               ; preds = %20, %5
  %.0 = phi i32 [ %21, %20 ], [ %18, %5 ]
  %23 = load ptr, ptr %8, align 8
  call void @proto_item_set_end(ptr noundef %23, ptr noundef %0, i32 noundef %.0)
  %24 = load ptr, ptr %8, align 8
  %25 = getelementptr inbounds nuw i8, ptr %1, i64 408
  %26 = load ptr, ptr %25, align 8
  %27 = load i32, ptr %6, align 4
  %28 = load i32, ptr %7, align 4
  %29 = call ptr @tvb_get_string_enc(ptr noundef %26, ptr noundef %0, i32 noundef %27, i32 noundef %28, i32 noundef 2)
  call void (ptr, ptr, ...) @proto_item_append_text(ptr noundef %24, ptr noundef nonnull @.str.687, ptr noundef %29)
  call void @llvm.lifetime.end.p0(i64 8, ptr nonnull %9) #9
  call void @llvm.lifetime.end.p0(i64 8, ptr nonnull %8) #9
  call void @llvm.lifetime.end.p0(i64 4, ptr nonnull %7) #9
  call void @llvm.lifetime.end.p0(i64 4, ptr nonnull %6) #9
  ret i32 %.0
}